target datalayout = "e-m:e-p270:32:32-p271:32:32-p272:64:64-i64:64-i128:128-f80:128-n8:16:32:64-S128"
target triple = "x86_64-pc-linux-gnu"

%class.Register = type { i32 }

@_ZL7c_rarg1 = internal constant %class.Register { i32 6 }, align 4
@_ZL7c_rarg0 = internal constant %class.Register { i32 7 }, align 4

; Function Attrs: mustprogress nounwind uwtable
define hidden void @_ZNK20XBarrierSetAssembler37generate_c1_load_barrier_runtime_stubEP13StubAssemblerm(ptr noundef nonnull align 8 dereferenceable(8) %0, ptr noundef %1, i64 noundef %2) #1 align 2 {
  %4 = alloca ptr, align 8
  %5 = alloca ptr, align 8
  %6 = alloca i64, align 8
  %7 = alloca %class.Register, align 4
  %8 = alloca %class.Register, align 4
  %9 = alloca %class.Register, align 4
  %10 = alloca %class.Register, align 4
  store ptr %0, ptr %4, align 8
  store ptr %1, ptr %5, align 8
  store i64 %2, ptr %6, align 8
  %11 = load ptr, ptr %5, align 8
  call void @_ZN14MacroAssembler5enterEv(ptr noundef nonnull align 8 dereferenceable(40) %11)
  %12 = load ptr, ptr %5, align 8
  call void @_ZN17C1_MacroAssembler30save_live_registers_no_oop_mapEb(ptr noundef nonnull align 8 dereferenceable(44) %12, i1 noundef zeroext true)
  %13 = load ptr, ptr %5, align 8
  call void @llvm.memcpy.p0.p0.i64(ptr align 4 %7, ptr align 4 @_ZL7c_rarg1, i64 4, i1 false)
  %14 = getelementptr inbounds %class.Register, ptr %7, i32 0, i32 0
  %15 = load i32, ptr %14, align 4
  call void @_ZN17C1_MacroAssembler14load_parameterEi8Register(ptr noundef nonnull align 8 dereferenceable(44) %13, i32 noundef 1, i32 %15)
  %16 = load ptr, ptr %5, align 8
  call void @llvm.memcpy.p0.p0.i64(ptr align 4 %8, ptr align 4 @_ZL7c_rarg0, i64 4, i1 false)
  %17 = getelementptr inbounds %class.Register, ptr %8, i32 0, i32 0
  %18 = load i32, ptr %17, align 4
  call void @_ZN17C1_MacroAssembler14load_parameterEi8Register(ptr noundef nonnull align 8 dereferenceable(44) %16, i32 noundef 0, i32 %18)
  %19 = load ptr, ptr %5, align 8
  %20 = load i64, ptr %6, align 8
  %21 = call noundef ptr @_ZN18XBarrierSetRuntime40load_barrier_on_oop_field_preloaded_addrEm(i64 noundef %20)
  call void @llvm.memcpy.p0.p0.i64(ptr align 4 %9, ptr align 4 @_ZL7c_rarg0, i64 4, i1 false)
  call void @llvm.memcpy.p0.p0.i64(ptr align 4 %10, ptr align 4 @_ZL7c_rarg1, i64 4, i1 false)
  %22 = getelementptr inbounds %class.Register, ptr %9, i32 0, i32 0
  %23 = load i32, ptr %22, align 4
  %24 = getelementptr inbounds %class.Register, ptr %10, i32 0, i32 0
  %25 = load i32, ptr %24, align 4
  call void @_ZN14MacroAssembler12call_VM_leafEPh8RegisterS1_(ptr noundef nonnull align 8 dereferenceable(40) %19, ptr noundef %21, i32 %23, i32 %25)
  %26 = load ptr, ptr %5, align 8
  call void @_ZN17C1_MacroAssembler33restore_live_registers_except_raxEb(ptr noundef nonnull align 8 dereferenceable(44) %26, i1 noundef zeroext true)
  %27 = load ptr, ptr %5, align 8
  call void @_ZN14MacroAssembler5leaveEv(ptr noundef nonnull align 8 dereferenceable(40) %27)
  %28 = load ptr, ptr %5, align 8
  call void @_ZN9Assembler3retEi(ptr noundef nonnull align 8 dereferenceable(40) %28, i32 noundef 0)
  ret void
}