; Function Attrs: mustprogress nounwind uwtable
define hidden void @_ZNK20XBarrierSetAssembler37generate_c1_load_barrier_runtime_stubEP13StubAssemblerm(ptr nocapture noundef nonnull readnone align 8 dereferenceable(8) %0, ptr noundef nonnull %1, i64 noundef %2) local_unnamed_addr #0 align 2 {
  tail call void @_ZN14MacroAssembler5enterEv(ptr noundef nonnull align 8 dereferenceable(40) %1) #9
  tail call void @_ZN17C1_MacroAssembler30save_live_registers_no_oop_mapEb(ptr noundef nonnull align 8 dereferenceable(44) %1, i1 noundef zeroext true) #9
  tail call void @_ZN17C1_MacroAssembler14load_parameterEi8Register(ptr noundef nonnull align 8 dereferenceable(44) %1, i32 noundef 1, i32 6) #9
  tail call void @_ZN17C1_MacroAssembler14load_parameterEi8Register(ptr noundef nonnull align 8 dereferenceable(44) %1, i32 noundef 0, i32 7) #9
  %4 = tail call noundef ptr @_ZN18XBarrierSetRuntime40load_barrier_on_oop_field_preloaded_addrEm(i64 noundef %2) #9
  tail call void @_ZN14MacroAssembler12call_VM_leafEPh8RegisterS1_(ptr noundef nonnull align 8 dereferenceable(40) %1, ptr noundef %4, i32 7, i32 6) #9
  tail call void @_ZN17C1_MacroAssembler33restore_live_registers_except_raxEb(ptr noundef nonnull align 8 dereferenceable(44) %1, i1 noundef zeroext true) #9
  tail call void @_ZN14MacroAssembler5leaveEv(ptr noundef nonnull align 8 dereferenceable(40) %1) #9
  tail call void @_ZN9Assembler3retEi(ptr noundef nonnull align 8 dereferenceable(40) %1, i32 noundef 0) #9
  ret void
}